; Function Attrs: mustprogress uwtable
define internal void @_ZN4pbrtL21glfwCursorPosCallbackEP10GLFWwindowdd(ptr noundef %0, double noundef %1, double noundef %2) #1 {
  %4 = tail call ptr @glfwGetWindowUserPointer(ptr noundef %0)
  %5 = getelementptr inbounds nuw i8, ptr %4, i64 216
  %6 = load double, ptr %5, align 8, !tbaa !177
  %7 = fsub double %1, %6
  %8 = fptrunc double %7 to float
  %9 = getelementptr inbounds nuw i8, ptr %4, i64 208
  store float %8, ptr %9, align 8, !tbaa !48
  %10 = getelementptr inbounds nuw i8, ptr %4, i64 224
  %11 = load double, ptr %10, align 8, !tbaa !178
  %12 = fsub double %11, %2
  %13 = fptrunc double %12 to float
  %14 = getelementptr inbounds nuw i8, ptr %4, i64 212
  store float %13, ptr %14, align 4, !tbaa !50
  store double %1, ptr %5, align 8, !tbaa !177
  store double %2, ptr %10, align 8, !tbaa !178
  ret void
}